target datalayout = "e-m:e-p270:32:32-p271:32:32-p272:64:64-i64:64-i128:128-f80:128-n8:16:32:64-S128"
target triple = "x86_64-pc-linux-gnu"

%struct.AVCodecContext = type { ptr, i32, i32, ptr, i32, i32, ptr, ptr, ptr, i64, i32, i32, ptr, i32, %struct.AVRational, %struct.AVRational, %struct.AVRational, i32, i32, i32, i32, i32, %struct.AVRational, i32, i32, i32, i32, i32, i32, i32, i32, i32, i32, i32, ptr, ptr, i32, float, float, float, float, float, float, float, float, float, i32, i32, i32, i32, i32, i32, i32, i32, i32, i32, i32, i32, ptr, ptr, ptr, i32, i32, i32, i32, i32, i32, i32, i32, i32, i32, %struct.AVChannelLayout, i32, i32, i32, i32, i32, i32, i32, i32, ptr, i32, i32, i32, float, float, i32, i32, i32, i32, i32, ptr, i64, i64, float, float, i32, i32, ptr, ptr, i32, i32, i32, i32, i32, ptr, ptr, ptr, ptr, i32, i32, [8 x i64], i32, i32, i32, i32, i32, i32, i32, ptr, ptr, i32, i32, i32, i32, i32, i32, i32, i32, i32, i32, ptr, ptr, i32, i32, ptr, ptr, ptr, ptr, i32, i32, i64, i32, i32, i64, ptr, i64, ptr, i32, ptr, i32 }
%struct.AVRational = type { i32, i32 }
%struct.AVChannelLayout = type { i32, i32, %union.anon.0, ptr }
%union.anon.0 = type { i64 }
%struct.ProresContext = type { %struct.BlockDSPContext, %struct.ProresDSPContext, ptr, i32, [64 x i8], [64 x i8], ptr, i32, i32, i32, [64 x i8], [64 x i8], ptr, i32, i32, ptr, i32 }
%struct.BlockDSPContext = type { ptr, ptr, [2 x ptr] }
%struct.ProresDSPContext = type { i32, [64 x i8], ptr }

@.str.2 = private unnamed_addr constant [27 x i8] c"Unknown prores profile %d\0A\00", align 1
@.str.3 = private unnamed_addr constant [63 x i8] c"Auto bitdepth precision. Use %db decoding based on codec tag.\0A\00", align 1
@ff_prores_progressive_scan = external constant [64 x i8], align 16
@ff_prores_interlaced_scan = external constant [64 x i8], align 16

; Function Attrs: cold nounwind optsize uwtable
define internal i32 @decode_init(ptr noundef %0) #1 {
  %2 = alloca ptr, align 8
  %3 = alloca ptr, align 8
  store ptr %0, ptr %2, align 8, !tbaa !4
  call void @llvm.lifetime.start.p0(i64 8, ptr %3) #10
  %4 = load ptr, ptr %2, align 8, !tbaa !4
  %5 = getelementptr inbounds nuw %struct.AVCodecContext, ptr %4, i32 0, i32 6
  %6 = load ptr, ptr %5, align 8, !tbaa !9
  store ptr %6, ptr %3, align 8, !tbaa !29
  %7 = load ptr, ptr %2, align 8, !tbaa !4
  %8 = getelementptr inbounds nuw %struct.AVCodecContext, ptr %7, i32 0, i32 115
  store i32 10, ptr %8, align 4, !tbaa !35
  %9 = load ptr, ptr %2, align 8, !tbaa !4
  %10 = getelementptr inbounds nuw %struct.AVCodecContext, ptr %9, i32 0, i32 5
  %11 = load i32, ptr %10, align 4, !tbaa !36
  switch i32 %11, label %34 [
    i32 1868787809, label %12
    i32 1935896673, label %15
    i32 1852010593, label %18
    i32 1751347297, label %21
    i32 1748267105, label %24
    i32 2016702561, label %29
  ]

12:                                               ; preds = %1
  %13 = load ptr, ptr %2, align 8, !tbaa !4
  %14 = getelementptr inbounds nuw %struct.AVCodecContext, ptr %13, i32 0, i32 121
  store i32 0, ptr %14, align 8, !tbaa !37
  br label %41

15:                                               ; preds = %1
  %16 = load ptr, ptr %2, align 8, !tbaa !4
  %17 = getelementptr inbounds nuw %struct.AVCodecContext, ptr %16, i32 0, i32 121
  store i32 1, ptr %17, align 8, !tbaa !37
  br label %41

18:                                               ; preds = %1
  %19 = load ptr, ptr %2, align 8, !tbaa !4
  %20 = getelementptr inbounds nuw %struct.AVCodecContext, ptr %19, i32 0, i32 121
  store i32 2, ptr %20, align 8, !tbaa !37
  br label %41

21:                                               ; preds = %1
  %22 = load ptr, ptr %2, align 8, !tbaa !4
  %23 = getelementptr inbounds nuw %struct.AVCodecContext, ptr %22, i32 0, i32 121
  store i32 3, ptr %23, align 8, !tbaa !37
  br label %41

24:                                               ; preds = %1
  %25 = load ptr, ptr %2, align 8, !tbaa !4
  %26 = getelementptr inbounds nuw %struct.AVCodecContext, ptr %25, i32 0, i32 121
  store i32 4, ptr %26, align 8, !tbaa !37
  %27 = load ptr, ptr %2, align 8, !tbaa !4
  %28 = getelementptr inbounds nuw %struct.AVCodecContext, ptr %27, i32 0, i32 115
  store i32 12, ptr %28, align 4, !tbaa !35
  br label %41

29:                                               ; preds = %1
  %30 = load ptr, ptr %2, align 8, !tbaa !4
  %31 = getelementptr inbounds nuw %struct.AVCodecContext, ptr %30, i32 0, i32 121
  store i32 5, ptr %31, align 8, !tbaa !37
  %32 = load ptr, ptr %2, align 8, !tbaa !4
  %33 = getelementptr inbounds nuw %struct.AVCodecContext, ptr %32, i32 0, i32 115
  store i32 12, ptr %33, align 4, !tbaa !35
  br label %41

34:                                               ; preds = %1
  %35 = load ptr, ptr %2, align 8, !tbaa !4
  %36 = getelementptr inbounds nuw %struct.AVCodecContext, ptr %35, i32 0, i32 121
  store i32 -99, ptr %36, align 8, !tbaa !37
  %37 = load ptr, ptr %2, align 8, !tbaa !4
  %38 = load ptr, ptr %2, align 8, !tbaa !4
  %39 = getelementptr inbounds nuw %struct.AVCodecContext, ptr %38, i32 0, i32 5
  %40 = load i32, ptr %39, align 4, !tbaa !36
  call void (ptr, i32, ptr, ...) @av_log(ptr noundef %37, i32 noundef 24, ptr noundef @.str.2, i32 noundef %40)
  br label %41

41:                                               ; preds = %34, %29, %24, %21, %18, %15, %12
  %42 = load ptr, ptr %2, align 8, !tbaa !4
  %43 = getelementptr inbounds nuw %struct.AVCodecContext, ptr %42, i32 0, i32 115
  %44 = load i32, ptr %43, align 4, !tbaa !35
  %45 = icmp eq i32 %44, 10
  %46 = select i1 %45, ptr @unpack_alpha_10, ptr @unpack_alpha_12
  %47 = load ptr, ptr %3, align 8, !tbaa !29
  %48 = getelementptr inbounds nuw %struct.ProresContext, ptr %47, i32 0, i32 15
  store ptr %46, ptr %48, align 8, !tbaa !38
  %49 = load ptr, ptr %2, align 8, !tbaa !4
  %50 = load ptr, ptr %2, align 8, !tbaa !4
  %51 = getelementptr inbounds nuw %struct.AVCodecContext, ptr %50, i32 0, i32 115
  %52 = load i32, ptr %51, align 4, !tbaa !35
  call void (ptr, i32, ptr, ...) @av_log(ptr noundef %49, i32 noundef 48, ptr noundef @.str.3, i32 noundef %52)
  %53 = load ptr, ptr %3, align 8, !tbaa !29
  %54 = getelementptr inbounds nuw %struct.ProresContext, ptr %53, i32 0, i32 0
  call void @ff_blockdsp_init(ptr noundef %54)
  %55 = load ptr, ptr %3, align 8, !tbaa !29
  %56 = getelementptr inbounds nuw %struct.ProresContext, ptr %55, i32 0, i32 1
  %57 = load ptr, ptr %2, align 8, !tbaa !4
  %58 = getelementptr inbounds nuw %struct.AVCodecContext, ptr %57, i32 0, i32 115
  %59 = load i32, ptr %58, align 4, !tbaa !35
  call void @ff_proresdsp_init(ptr noundef %56, i32 noundef %59)
  %60 = load ptr, ptr %3, align 8, !tbaa !29
  %61 = getelementptr inbounds nuw %struct.ProresContext, ptr %60, i32 0, i32 10
  %62 = getelementptr inbounds [64 x i8], ptr %61, i64 0, i64 0
  %63 = load ptr, ptr %3, align 8, !tbaa !29
  %64 = getelementptr inbounds nuw %struct.ProresContext, ptr %63, i32 0, i32 1
  %65 = getelementptr inbounds nuw %struct.ProresDSPContext, ptr %64, i32 0, i32 1
  %66 = getelementptr inbounds [64 x i8], ptr %65, i64 0, i64 0
  call void @ff_permute_scantable(ptr noundef %62, ptr noundef @ff_prores_progressive_scan, ptr noundef %66)
  %67 = load ptr, ptr %3, align 8, !tbaa !29
  %68 = getelementptr inbounds nuw %struct.ProresContext, ptr %67, i32 0, i32 11
  %69 = getelementptr inbounds [64 x i8], ptr %68, i64 0, i64 0
  %70 = load ptr, ptr %3, align 8, !tbaa !29
  %71 = getelementptr inbounds nuw %struct.ProresContext, ptr %70, i32 0, i32 1
  %72 = getelementptr inbounds nuw %struct.ProresDSPContext, ptr %71, i32 0, i32 1
  %73 = getelementptr inbounds [64 x i8], ptr %72, i64 0, i64 0
  call void @ff_permute_scantable(ptr noundef %69, ptr noundef @ff_prores_interlaced_scan, ptr noundef %73)
  %74 = load ptr, ptr %3, align 8, !tbaa !29
  %75 = getelementptr inbounds nuw %struct.ProresContext, ptr %74, i32 0, i32 16
  store i32 -1, ptr %75, align 8, !tbaa !30
  call void @llvm.lifetime.end.p0(i64 8, ptr %3) #10
  ret i32 0
}