; Function Attrs: cold nounwind optsize uwtable
define internal noundef i32 @decode_init(ptr noundef initializes((652, 656), (688, 692)) %0) #1 {
  %2 = getelementptr inbounds nuw i8, ptr %0, i64 32
  %3 = load ptr, ptr %2, align 8, !tbaa !4
  %4 = getelementptr inbounds nuw i8, ptr %0, i64 652
  store i32 10, ptr %4, align 4, !tbaa !32
  %5 = getelementptr inbounds nuw i8, ptr %0, i64 28
  %6 = load i32, ptr %5, align 4, !tbaa !33
  %7 = getelementptr inbounds nuw i8, ptr %0, i64 688
  switch i32 %6, label %14 [
    i32 1868787809, label %8
    i32 1935896673, label %9
    i32 1852010593, label %10
    i32 1751347297, label %11
    i32 1748267105, label %12
    i32 2016702561, label %13
  ]

8:                                                ; preds = %1
  store i32 0, ptr %7, align 8, !tbaa !34
  br label %.thread

9:                                                ; preds = %1
  store i32 1, ptr %7, align 8, !tbaa !34
  br label %.thread

10:                                               ; preds = %1
  store i32 2, ptr %7, align 8, !tbaa !34
  br label %.thread

11:                                               ; preds = %1
  store i32 3, ptr %7, align 8, !tbaa !34
  br label %.thread

12:                                               ; preds = %1
  store i32 4, ptr %7, align 8, !tbaa !34
  store i32 12, ptr %4, align 4, !tbaa !32
  br label %.thread

13:                                               ; preds = %1
  store i32 5, ptr %7, align 8, !tbaa !34
  store i32 12, ptr %4, align 4, !tbaa !32
  br label %.thread

14:                                               ; preds = %1
  store i32 -99, ptr %7, align 8, !tbaa !34
  tail call void (ptr, i32, ptr, ...) @av_log(ptr noundef nonnull %0, i32 noundef 24, ptr noundef nonnull @.str.2, i32 noundef %6) #10
  %.pre = load i32, ptr %4, align 4, !tbaa !32
  %15 = icmp eq i32 %.pre, 10
  %spec.select28 = select i1 %15, ptr @unpack_alpha_10, ptr @unpack_alpha_12
  br label %.thread

.thread:                                          ; preds = %14, %12, %13, %8, %9, %10, %11
  %16 = phi i32 [ 10, %11 ], [ 10, %10 ], [ 10, %9 ], [ 10, %8 ], [ 12, %13 ], [ 12, %12 ], [ %.pre, %14 ]
  %17 = phi ptr [ @unpack_alpha_10, %11 ], [ @unpack_alpha_10, %10 ], [ @unpack_alpha_10, %9 ], [ @unpack_alpha_10, %8 ], [ @unpack_alpha_12, %13 ], [ @unpack_alpha_12, %12 ], [ %spec.select28, %14 ]
  %18 = getelementptr inbounds nuw i8, ptr %3, i64 424
  store ptr %17, ptr %18, align 8, !tbaa !35
  tail call void (ptr, i32, ptr, ...) @av_log(ptr noundef nonnull %0, i32 noundef 48, ptr noundef nonnull @.str.3, i32 noundef %16) #10
  tail call void @ff_blockdsp_init(ptr noundef %3) #10
  %19 = getelementptr inbounds nuw i8, ptr %3, i64 32
  %20 = load i32, ptr %4, align 4, !tbaa !32
  tail call void @ff_proresdsp_init(ptr noundef nonnull %19, i32 noundef %20) #10
  %21 = getelementptr inbounds nuw i8, ptr %3, i64 276
  %22 = getelementptr inbounds nuw i8, ptr %3, i64 36
  tail call void @ff_permute_scantable(ptr noundef nonnull %21, ptr noundef nonnull @ff_prores_progressive_scan, ptr noundef nonnull %22) #10
  %23 = getelementptr inbounds nuw i8, ptr %3, i64 340
  tail call void @ff_permute_scantable(ptr noundef nonnull %23, ptr noundef nonnull @ff_prores_interlaced_scan, ptr noundef nonnull %22) #10
  %24 = getelementptr inbounds nuw i8, ptr %3, i64 432
  store i32 -1, ptr %24, align 8, !tbaa !27
  ret i32 0
}